target datalayout = "e-m:e-p270:32:32-p271:32:32-p272:64:64-i64:64-i128:128-f80:128-n8:16:32:64-S128"
target triple = "x86_64-pc-linux-gnu"

%struct._object = type { i64, ptr }
%"class.nanobind::handle" = type { ptr }
%struct.Copyable = type { i32 }
%"struct.nanobind::detail::type_caster.237" = type { %"struct.nanobind::detail::type_caster_base.238" }
%"struct.nanobind::detail::type_caster_base.238" = type { ptr }
%"struct.nanobind::detail::tuple.252" = type { %"struct.nanobind::detail::type_caster.237" }
%class.anon.331 = type { i8 }

@_Py_NoneStruct = external global %struct._object, align 8
@_ZTI8Copyable = linkonce_odr hidden constant { ptr, ptr } { ptr getelementptr inbounds (ptr, ptr @_ZTVN10__cxxabiv117__class_type_infoE, i64 2), ptr @_ZTS8Copyable }, comdat, align 8

; Function Attrs: alwaysinline mustprogress nounwind optsize uwtable
define linkonce_odr hidden noundef ptr @_ZNK8nanobind6handle3ptrEv(ptr noundef nonnull align 8 dereferenceable(8) %0) #3 comdat align 2 {
  %2 = alloca ptr, align 8
  store ptr %0, ptr %2, align 8, !tbaa !17
  %3 = load ptr, ptr %2, align 8
  %4 = getelementptr inbounds nuw %"class.nanobind::handle", ptr %3, i32 0, i32 0
  %5 = load ptr, ptr %4, align 8, !tbaa !19
  ret ptr %5
}

; Function Attrs: inlinehint mustprogress nounwind optsize uwtable
define internal void @_ZL10_Py_INCREFP7_object(ptr noundef %0) #11 {
  %2 = alloca ptr, align 8
  store ptr %0, ptr %2, align 8, !tbaa !3
  %3 = load ptr, ptr %2, align 8, !tbaa !3
  %4 = getelementptr inbounds nuw %struct._object, ptr %3, i32 0, i32 0
  %5 = load i64, ptr %4, align 8, !tbaa !33
  %6 = add nsw i64 %5, 1
  store i64 %6, ptr %4, align 8, !tbaa !33
  ret void
}

; Function Attrs: inlinehint mustprogress optsize uwtable
define internal void @"_ZZL26nanobind_init_test_stl_extRN8nanobind7module_EENK4$_12clER8Copyable"(ptr noundef nonnull align 1 dereferenceable(1) %0, ptr noundef nonnull align 4 dereferenceable(4) %1) #10 align 2 {
  %3 = alloca ptr, align 8
  %4 = alloca ptr, align 8
  store ptr %0, ptr %3, align 8, !tbaa !8
  store ptr %1, ptr %4, align 8, !tbaa !230
  %5 = load ptr, ptr %4, align 8, !tbaa !230
  %6 = getelementptr inbounds nuw %struct.Copyable, ptr %5, i32 0, i32 0
  %7 = load i32, ptr %6, align 4, !tbaa !232
  %8 = icmp ne i32 %7, 5
  br i1 %8, label %9, label %10

9:                                                ; preds = %2
  call void @_Z4failv() #22
  br label %10

10:                                               ; preds = %9, %2
  ret void
}

; Function Attrs: mustprogress optsize uwtable
define linkonce_odr hidden noundef nonnull align 4 dereferenceable(4) ptr @_ZN8nanobind6detail16type_caster_baseI8CopyableEcvRS2_Ev(ptr noundef nonnull align 8 dereferenceable(8) %0) #0 comdat align 2 {
  %2 = alloca ptr, align 8
  store ptr %0, ptr %2, align 8, !tbaa !248
  %3 = load ptr, ptr %2, align 8
  %4 = getelementptr inbounds nuw %"struct.nanobind::detail::type_caster_base.238", ptr %3, i32 0, i32 0
  %5 = load ptr, ptr %4, align 8, !tbaa !250
  call void @_ZN8nanobind6detail27raise_next_overload_if_nullEPv(ptr noundef %5) #22
  %6 = getelementptr inbounds nuw %"struct.nanobind::detail::type_caster_base.238", ptr %3, i32 0, i32 0
  %7 = load ptr, ptr %6, align 8, !tbaa !250
  ret ptr %7
}

; Function Attrs: alwaysinline mustprogress nounwind optsize uwtable
define linkonce_odr hidden noundef zeroext i1 @_ZN8nanobind6detail16type_caster_baseI8CopyableE11from_pythonENS_6handleEhPNS0_12cleanup_listE(ptr noundef nonnull align 8 dereferenceable(8) %0, ptr %1, i8 noundef zeroext %2, ptr noundef %3) #3 comdat align 2 {
  %5 = alloca %"class.nanobind::handle", align 8
  %6 = alloca ptr, align 8
  %7 = alloca i8, align 1
  %8 = alloca ptr, align 8
  %9 = getelementptr inbounds nuw %"class.nanobind::handle", ptr %5, i32 0, i32 0
  store ptr %1, ptr %9, align 8
  store ptr %0, ptr %6, align 8, !tbaa !248
  store i8 %2, ptr %7, align 1, !tbaa !57
  store ptr %3, ptr %8, align 8, !tbaa !167
  %10 = load ptr, ptr %6, align 8
  %11 = call noundef ptr @_ZNK8nanobind6handle3ptrEv(ptr noundef nonnull align 8 dereferenceable(8) %5) #22
  %12 = load i8, ptr %7, align 1, !tbaa !57
  %13 = load ptr, ptr %8, align 8, !tbaa !167
  %14 = getelementptr inbounds nuw %"struct.nanobind::detail::type_caster_base.238", ptr %10, i32 0, i32 0
  %15 = call noundef zeroext i1 @_ZN8nanobind6detail11nb_type_getEPKSt9type_infoP7_objecthPNS0_12cleanup_listEPPv(ptr noundef @_ZTI8Copyable, ptr noundef %11, i8 noundef zeroext %12, ptr noundef %13, ptr noundef %14) #23
  ret i1 %15
}

; Function Attrs: alwaysinline mustprogress nounwind optsize uwtable
define linkonce_odr hidden void @_ZN8nanobind6handleC2EPK7_object(ptr noundef nonnull align 8 dereferenceable(8) %0, ptr noundef %1) unnamed_addr #3 comdat align 2 {
  %3 = alloca ptr, align 8
  %4 = alloca ptr, align 8
  store ptr %0, ptr %3, align 8, !tbaa !17
  store ptr %1, ptr %4, align 8, !tbaa !3
  %5 = load ptr, ptr %3, align 8
  %6 = getelementptr inbounds nuw %"class.nanobind::handle", ptr %5, i32 0, i32 0
  %7 = load ptr, ptr %4, align 8, !tbaa !3
  store ptr %7, ptr %6, align 8, !tbaa !19
  ret void
}

; Function Attrs: alwaysinline mustprogress nounwind optsize uwtable
define linkonce_odr hidden noundef nonnull align 8 dereferenceable(8) ptr @_ZN8nanobind6detail5tupleIJNS0_11type_casterI8CopyableiEEEE3getILm0EEERDav(ptr noundef nonnull align 8 dereferenceable(8) %0) #3 comdat align 2 {
  %2 = alloca ptr, align 8
  store ptr %0, ptr %2, align 8, !tbaa !262
  %3 = load ptr, ptr %2, align 8
  %4 = getelementptr inbounds nuw %"struct.nanobind::detail::tuple.252", ptr %3, i32 0, i32 0
  ret ptr %4
}

; Function Attrs: alwaysinline mustprogress optsize uwtable
define internal noundef ptr @"_ZZN8nanobind6detail11func_createILb0ELb1EZL26nanobind_init_test_stl_extRNS_7module_EE4$_12vJR8CopyableEJLm0EEJNS_5scopeENS_4nameEEEEP7_objectOT1_PFT2_DpT3_ESt16integer_sequenceImJXspT4_EEEDpRKT5_ENKUlPvPSA_PhNS_9rv_policyEPNS0_12cleanup_listEE_clESO_SP_SQ_SR_ST_"(ptr noundef nonnull align 1 dereferenceable(1) %0, ptr noundef %1, ptr noundef %2, ptr noundef %3, i32 noundef %4, ptr noundef %5) #7 align 2 {
  %7 = alloca ptr, align 8
  %8 = alloca ptr, align 8
  %9 = alloca ptr, align 8
  %10 = alloca ptr, align 8
  %11 = alloca ptr, align 8
  %12 = alloca i32, align 4
  %13 = alloca ptr, align 8
  %14 = alloca ptr, align 8
  %15 = alloca %"struct.nanobind::detail::tuple.252", align 8
  %16 = alloca %"class.nanobind::handle", align 8
  %17 = alloca i32, align 4
  %18 = alloca ptr, align 8
  store ptr %0, ptr %8, align 8, !tbaa !8
  store ptr %1, ptr %9, align 8, !tbaa !8
  store ptr %2, ptr %10, align 8, !tbaa !165
  store ptr %3, ptr %11, align 8, !tbaa !34
  store i32 %4, ptr %12, align 4, !tbaa !23
  store ptr %5, ptr %13, align 8, !tbaa !167
  call void @llvm.lifetime.start.p0(i64 8, ptr %14) #21
  %19 = load ptr, ptr %9, align 8, !tbaa !8
  store ptr %19, ptr %14, align 8, !tbaa !426
  call void @llvm.lifetime.start.p0(i64 8, ptr %15) #21
  %20 = call noundef nonnull align 8 dereferenceable(8) ptr @_ZN8nanobind6detail5tupleIJNS0_11type_casterI8CopyableiEEEE3getILm0EEERDav(ptr noundef nonnull align 8 dereferenceable(8) %15) #22
  %21 = load ptr, ptr %10, align 8, !tbaa !165
  %22 = getelementptr inbounds nuw ptr, ptr %21, i64 0
  %23 = load ptr, ptr %22, align 8, !tbaa !3
  call void @_ZN8nanobind6handleC2EPK7_object(ptr noundef nonnull align 8 dereferenceable(8) %16, ptr noundef %23) #22
  %24 = load ptr, ptr %11, align 8, !tbaa !34
  %25 = getelementptr inbounds nuw i8, ptr %24, i64 0
  %26 = load i8, ptr %25, align 1, !tbaa !57
  %27 = load ptr, ptr %13, align 8, !tbaa !167
  %28 = getelementptr inbounds nuw %"class.nanobind::handle", ptr %16, i32 0, i32 0
  %29 = load ptr, ptr %28, align 8
  %30 = call noundef zeroext i1 @_ZN8nanobind6detail16type_caster_baseI8CopyableE11from_pythonENS_6handleEhPNS0_12cleanup_listE(ptr noundef nonnull align 8 dereferenceable(8) %20, ptr %29, i8 noundef zeroext %26, ptr noundef %27) #23
  br i1 %30, label %32, label %31

31:                                               ; preds = %6
  store ptr inttoptr (i64 1 to ptr), ptr %7, align 8
  store i32 1, ptr %17, align 4
  br label %38

32:                                               ; preds = %6
  call void @llvm.lifetime.start.p0(i64 8, ptr %18) #21
  %33 = load ptr, ptr %14, align 8, !tbaa !426
  %34 = call noundef nonnull align 8 dereferenceable(8) ptr @_ZN8nanobind6detail5tupleIJNS0_11type_casterI8CopyableiEEEE3getILm0EEERDav(ptr noundef nonnull align 8 dereferenceable(8) %15) #22
  %35 = call noundef nonnull align 4 dereferenceable(4) ptr @_ZN8nanobind6detail16type_caster_baseI8CopyableEcvRS2_Ev(ptr noundef nonnull align 8 dereferenceable(8) %34) #22
  call void @"_ZZL26nanobind_init_test_stl_extRN8nanobind7module_EENK4$_12clER8Copyable"(ptr noundef nonnull align 1 dereferenceable(1) %33, ptr noundef nonnull align 4 dereferenceable(4) %35) #22
  store ptr @_Py_NoneStruct, ptr %18, align 8, !tbaa !3
  %36 = load ptr, ptr %18, align 8, !tbaa !3
  call void @_ZL10_Py_INCREFP7_object(ptr noundef %36) #22
  %37 = load ptr, ptr %18, align 8, !tbaa !3
  store ptr %37, ptr %7, align 8
  store i32 1, ptr %17, align 4
  call void @llvm.lifetime.end.p0(i64 8, ptr %18) #21
  br label %38

38:                                               ; preds = %32, %31
  call void @llvm.lifetime.end.p0(i64 8, ptr %15) #21
  call void @llvm.lifetime.end.p0(i64 8, ptr %14) #21
  %39 = load ptr, ptr %7, align 8
  ret ptr %39
}

; Function Attrs: inlinehint mustprogress optsize uwtable
define internal noundef ptr @"_ZZN8nanobind6detail11func_createILb0ELb1EZL26nanobind_init_test_stl_extRNS_7module_EE4$_12vJR8CopyableEJLm0EEJNS_5scopeENS_4nameEEEEP7_objectOT1_PFT2_DpT3_ESt16integer_sequenceImJXspT4_EEEDpRKT5_ENUlPvPSA_PhNS_9rv_policyEPNS0_12cleanup_listEE_8__invokeESO_SP_SQ_SR_ST_"(ptr noundef %0, ptr noundef %1, ptr noundef %2, i32 noundef %3, ptr noundef %4) #10 align 2 {
  %6 = alloca ptr, align 8
  %7 = alloca ptr, align 8
  %8 = alloca ptr, align 8
  %9 = alloca i32, align 4
  %10 = alloca ptr, align 8
  %11 = alloca %class.anon.331, align 1
  store ptr %0, ptr %6, align 8, !tbaa !8
  store ptr %1, ptr %7, align 8, !tbaa !165
  store ptr %2, ptr %8, align 8, !tbaa !34
  store i32 %3, ptr %9, align 4, !tbaa !23
  store ptr %4, ptr %10, align 8, !tbaa !167
  %12 = load ptr, ptr %6, align 8, !tbaa !8
  %13 = load ptr, ptr %7, align 8, !tbaa !165
  %14 = load ptr, ptr %8, align 8, !tbaa !34
  %15 = load i32, ptr %9, align 4, !tbaa !23
  %16 = load ptr, ptr %10, align 8, !tbaa !167
  %17 = call noundef ptr @"_ZZN8nanobind6detail11func_createILb0ELb1EZL26nanobind_init_test_stl_extRNS_7module_EE4$_12vJR8CopyableEJLm0EEJNS_5scopeENS_4nameEEEEP7_objectOT1_PFT2_DpT3_ESt16integer_sequenceImJXspT4_EEEDpRKT5_ENKUlPvPSA_PhNS_9rv_policyEPNS0_12cleanup_listEE_clESO_SP_SQ_SR_ST_"(ptr noundef nonnull align 1 dereferenceable(1) %11, ptr noundef %12, ptr noundef %13, ptr noundef %14, i32 noundef %15, ptr noundef %16) #22
  ret ptr %17
}