; Function Attrs: inlinehint mustprogress optsize uwtable
define internal noundef nonnull ptr @"_ZZN8nanobind6detail11func_createILb0ELb1EZL26nanobind_init_test_stl_extRNS_7module_EE4$_12vJR8CopyableEJLm0EEJNS_5scopeENS_4nameEEEEP7_objectOT1_PFT2_DpT3_ESt16integer_sequenceImJXspT4_EEEDpRKT5_ENUlPvPSA_PhNS_9rv_policyEPNS0_12cleanup_listEE_8__invokeESO_SP_SQ_SR_ST_"(ptr readnone captures(none) %0, ptr noundef readonly captures(none) %1, ptr noundef readonly captures(none) %2, i32 %3, ptr noundef %4) #11 align 2 {
  %6 = alloca %"struct.nanobind::detail::tuple.252", align 8
  call void @llvm.lifetime.start.p0(i64 8, ptr nonnull %6) #28
  %7 = load ptr, ptr %1, align 8, !tbaa !131
  %8 = load i8, ptr %2, align 1, !tbaa !44
  %9 = call noundef zeroext i1 @_ZN8nanobind6detail11nb_type_getEPKSt9type_infoP7_objecthPNS0_12cleanup_listEPPv(ptr noundef nonnull @_ZTI8Copyable, ptr noundef %7, i8 noundef zeroext %8, ptr noundef %4, ptr noundef nonnull align 8 dereferenceable(8) %6) #27
  br i1 %9, label %10, label %"_ZZN8nanobind6detail11func_createILb0ELb1EZL26nanobind_init_test_stl_extRNS_7module_EE4$_12vJR8CopyableEJLm0EEJNS_5scopeENS_4nameEEEEP7_objectOT1_PFT2_DpT3_ESt16integer_sequenceImJXspT4_EEEDpRKT5_ENKUlPvPSA_PhNS_9rv_policyEPNS0_12cleanup_listEE_clESO_SP_SQ_SR_ST_.exit"

10:                                               ; preds = %5
  %11 = load ptr, ptr %6, align 8, !tbaa !144
  call void @_ZN8nanobind6detail27raise_next_overload_if_nullEPv(ptr noundef %11) #30
  %12 = load ptr, ptr %6, align 8, !tbaa !144
  %.val = load i32, ptr %12, align 4, !tbaa !142
  %.not.i = icmp eq i32 %.val, 5
  br i1 %.not.i, label %"_ZZL26nanobind_init_test_stl_extRN8nanobind7module_EENK4$_12clER8Copyable.exit", label %13

13:                                               ; preds = %10
  call void @_Z4failv() #30
  unreachable

"_ZZL26nanobind_init_test_stl_extRN8nanobind7module_EENK4$_12clER8Copyable.exit": ; preds = %10
  %14 = load i64, ptr @_Py_NoneStruct, align 8, !tbaa !69
  %15 = add nsw i64 %14, 1
  store i64 %15, ptr @_Py_NoneStruct, align 8, !tbaa !69
  br label %"_ZZN8nanobind6detail11func_createILb0ELb1EZL26nanobind_init_test_stl_extRNS_7module_EE4$_12vJR8CopyableEJLm0EEJNS_5scopeENS_4nameEEEEP7_objectOT1_PFT2_DpT3_ESt16integer_sequenceImJXspT4_EEEDpRKT5_ENKUlPvPSA_PhNS_9rv_policyEPNS0_12cleanup_listEE_clESO_SP_SQ_SR_ST_.exit"

"_ZZN8nanobind6detail11func_createILb0ELb1EZL26nanobind_init_test_stl_extRNS_7module_EE4$_12vJR8CopyableEJLm0EEJNS_5scopeENS_4nameEEEEP7_objectOT1_PFT2_DpT3_ESt16integer_sequenceImJXspT4_EEEDpRKT5_ENKUlPvPSA_PhNS_9rv_policyEPNS0_12cleanup_listEE_clESO_SP_SQ_SR_ST_.exit": ; preds = %5, %"_ZZL26nanobind_init_test_stl_extRN8nanobind7module_EENK4$_12clER8Copyable.exit"
  %.0.i = phi ptr [ @_Py_NoneStruct, %"_ZZL26nanobind_init_test_stl_extRN8nanobind7module_EENK4$_12clER8Copyable.exit" ], [ inttoptr (i64 1 to ptr), %5 ]
  call void @llvm.lifetime.end.p0(i64 8, ptr nonnull %6) #28
  ret ptr %.0.i
}